; Function Attrs: nounwind uwtable
define void @Abc_ShaManStop(ptr noundef captures(none) %0) local_unnamed_addr #3 {
  %2 = getelementptr inbounds nuw i8, ptr %0, i64 16
  %3 = load ptr, ptr %2, align 8, !tbaa !18
  %4 = getelementptr i8, ptr %3, i64 4
  %.val15 = load i32, ptr %4, align 4, !tbaa !19
  %5 = icmp sgt i32 %.val15, 0
  br i1 %5, label %.lr.ph, label %.critedge

.lr.ph:                                           ; preds = %1, %Vec_VecFree.exit
  %indvars.iv = phi i64 [ %indvars.iv.next, %Vec_VecFree.exit ], [ 0, %1 ]
  %6 = phi ptr [ %26, %Vec_VecFree.exit ], [ %3, %1 ]
  %7 = getelementptr i8, ptr %6, i64 8
  %.val10 = load ptr, ptr %7, align 8, !tbaa !21
  %8 = getelementptr inbounds nuw ptr, ptr %.val10, i64 %indvars.iv
  %9 = load ptr, ptr %8, align 8, !tbaa !22
  %10 = getelementptr i8, ptr %9, i64 4
  %.val11.i = load i32, ptr %10, align 4, !tbaa !23
  %11 = icmp sgt i32 %.val11.i, 0
  br i1 %11, label %.lr.ph.i, label %.critedge.i

.lr.ph.i:                                         ; preds = %.lr.ph
  %12 = getelementptr i8, ptr %9, i64 8
  br label %13

13:                                               ; preds = %20, %.lr.ph.i
  %.val14.i = phi i32 [ %.val11.i, %.lr.ph.i ], [ %.val.i, %20 ]
  %indvars.iv.i = phi i64 [ 0, %.lr.ph.i ], [ %indvars.iv.next.i, %20 ]
  %.val8.i = load ptr, ptr %12, align 8, !tbaa !25
  %14 = getelementptr inbounds nuw ptr, ptr %.val8.i, i64 %indvars.iv.i
  %15 = load ptr, ptr %14, align 8, !tbaa !22
  %.not.i = icmp eq ptr %15, null
  br i1 %.not.i, label %20, label %16

16:                                               ; preds = %13
  %17 = getelementptr inbounds nuw i8, ptr %15, i64 8
  %18 = load ptr, ptr %17, align 8, !tbaa !21
  %.not.i.i = icmp eq ptr %18, null
  br i1 %.not.i.i, label %Vec_PtrFree.exit.i, label %19

19:                                               ; preds = %16
  tail call void @free(ptr noundef nonnull %18) #15
  br label %Vec_PtrFree.exit.i

Vec_PtrFree.exit.i:                               ; preds = %19, %16
  tail call void @free(ptr noundef nonnull %15) #15
  %.val.pre.i = load i32, ptr %10, align 4, !tbaa !23
  br label %20

20:                                               ; preds = %Vec_PtrFree.exit.i, %13
  %.val.i = phi i32 [ %.val14.i, %13 ], [ %.val.pre.i, %Vec_PtrFree.exit.i ]
  %indvars.iv.next.i = add nuw nsw i64 %indvars.iv.i, 1
  %21 = sext i32 %.val.i to i64
  %22 = icmp slt i64 %indvars.iv.next.i, %21
  br i1 %22, label %13, label %.critedge.i, !llvm.loop !26

.critedge.i:                                      ; preds = %20, %.lr.ph
  %23 = getelementptr inbounds nuw i8, ptr %9, i64 8
  %24 = load ptr, ptr %23, align 8, !tbaa !21
  %.not.i9.i = icmp eq ptr %24, null
  br i1 %.not.i9.i, label %Vec_VecFree.exit, label %25

25:                                               ; preds = %.critedge.i
  tail call void @free(ptr noundef nonnull %24) #15
  br label %Vec_VecFree.exit

Vec_VecFree.exit:                                 ; preds = %.critedge.i, %25
  tail call void @free(ptr noundef nonnull %9) #15
  %indvars.iv.next = add nuw nsw i64 %indvars.iv, 1
  %26 = load ptr, ptr %2, align 8, !tbaa !18
  %27 = getelementptr i8, ptr %26, i64 4
  %.val = load i32, ptr %27, align 4, !tbaa !19
  %28 = sext i32 %.val to i64
  %29 = icmp slt i64 %indvars.iv.next, %28
  br i1 %29, label %.lr.ph, label %.critedge, !llvm.loop !28

.critedge:                                        ; preds = %Vec_VecFree.exit, %1
  %.lcssa = phi ptr [ %3, %1 ], [ %26, %Vec_VecFree.exit ]
  %30 = getelementptr inbounds nuw i8, ptr %.lcssa, i64 8
  %31 = load ptr, ptr %30, align 8, !tbaa !21
  %.not.i11 = icmp eq ptr %31, null
  br i1 %.not.i11, label %Vec_PtrFreeP.exit, label %.thread.i

.thread.i:                                        ; preds = %.critedge
  tail call void @free(ptr noundef nonnull %31) #15
  %32 = load ptr, ptr %2, align 8, !tbaa !29
  %33 = getelementptr inbounds nuw i8, ptr %32, i64 8
  store ptr null, ptr %33, align 8, !tbaa !21
  br label %Vec_PtrFreeP.exit

Vec_PtrFreeP.exit:                                ; preds = %.critedge, %.thread.i
  %34 = phi ptr [ %32, %.thread.i ], [ %.lcssa, %.critedge ]
  tail call void @free(ptr noundef nonnull %34) #15
  store ptr null, ptr %2, align 8, !tbaa !29
  %35 = getelementptr inbounds nuw i8, ptr %0, i64 24
  %36 = load ptr, ptr %35, align 8, !tbaa !30
  %37 = icmp eq ptr %36, null
  br i1 %37, label %45, label %38

38:                                               ; preds = %Vec_PtrFreeP.exit
  %39 = getelementptr inbounds nuw i8, ptr %36, i64 8
  %40 = load ptr, ptr %39, align 8, !tbaa !16
  %.not.i12 = icmp eq ptr %40, null
  br i1 %.not.i12, label %43, label %.thread.i13

.thread.i13:                                      ; preds = %38
  tail call void @free(ptr noundef nonnull %40) #15
  %41 = load ptr, ptr %35, align 8, !tbaa !30
  %42 = getelementptr inbounds nuw i8, ptr %41, i64 8
  store ptr null, ptr %42, align 8, !tbaa !16
  br label %43

43:                                               ; preds = %.thread.i13, %38
  %44 = phi ptr [ %41, %.thread.i13 ], [ %36, %38 ]
  tail call void @free(ptr noundef nonnull %44) #15
  br label %45

45:                                               ; preds = %Vec_PtrFreeP.exit, %43
  tail call void @free(ptr noundef nonnull %0) #15
  ret void
}